; Function Attrs: mustprogress nofree norecurse nosync nounwind memory(readwrite, inaccessiblemem: none) uwtable
define hidden void @_ZN3sat6solver8save_psmEv(ptr nocapture noundef nonnull readonly align 8 dereferenceable(4408) %this) local_unnamed_addr #6 align 2 {
entry:
  %m_learned = getelementptr inbounds i8, ptr %this, i64 3384
  %0 = load ptr, ptr %m_learned, align 8
  %cmp.i.i = icmp eq ptr %0, null
  br i1 %cmp.i.i, label %for.end, label %_ZN6vectorIPN3sat6clauseELb0EjE3endEv.exit

_ZN6vectorIPN3sat6clauseELb0EjE3endEv.exit:       ; preds = %entry
  %arrayidx.i.i = getelementptr inbounds i8, ptr %0, i64 -4
  %1 = load i32, ptr %arrayidx.i.i, align 4
  %2 = zext i32 %1 to i64
  %add.ptr.i = getelementptr inbounds ptr, ptr %0, i64 %2
  %cmp.not6 = icmp eq i32 %1, 0
  br i1 %cmp.not6, label %for.end, label %for.body.lr.ph

for.body.lr.ph:                                   ; preds = %_ZN6vectorIPN3sat6clauseELb0EjE3endEv.exit
  %m_phase.i = getelementptr inbounds i8, ptr %this, i64 3600
  br label %for.body

for.body:                                         ; preds = %for.body.lr.ph, %_ZNK3sat6solver3psmERKNS_6clauseE.exit
  %__begin1.07 = phi ptr [ %0, %for.body.lr.ph ], [ %incdec.ptr, %_ZNK3sat6solver3psmERKNS_6clauseE.exit ]
  %3 = load ptr, ptr %__begin1.07, align 8
  %m_size.i.i = getelementptr inbounds i8, ptr %3, i64 4
  %4 = load i32, ptr %m_size.i.i, align 4
  %idx.ext.i.i = zext i32 %4 to i64
  %add.ptr.i.idx.i = shl nuw nsw i64 %idx.ext.i.i, 2
  %5 = getelementptr i8, ptr %3, i64 %add.ptr.i.idx.i
  %add.ptr.i.ptr.i = getelementptr i8, ptr %5, i64 20
  %cmp.not7.i = icmp eq i32 %4, 0
  br i1 %cmp.not7.i, label %_ZNK3sat6solver3psmERKNS_6clauseE.exit, label %for.body.lr.ph.i

for.body.lr.ph.i:                                 ; preds = %for.body
  %m_lits.i.ptr.i = getelementptr inbounds i8, ptr %3, i64 20
  %6 = load ptr, ptr %m_phase.i, align 8
  br label %for.body.i

for.body.i:                                       ; preds = %for.body.i, %for.body.lr.ph.i
  %r.09.i = phi i32 [ 0, %for.body.lr.ph.i ], [ %spec.select.i, %for.body.i ]
  %__begin1.08.i = phi ptr [ %m_lits.i.ptr.i, %for.body.lr.ph.i ], [ %incdec.ptr.i, %for.body.i ]
  %7 = load i32, ptr %__begin1.08.i, align 4
  %8 = and i32 %7, 1
  %tobool.i.i = icmp ne i32 %8, 0
  %shr.i.i = lshr i32 %7, 1
  %idxprom.i.i = zext nneg i32 %shr.i.i to i64
  %arrayidx.i.i5 = getelementptr inbounds i8, ptr %6, i64 %idxprom.i.i
  %9 = load i8, ptr %arrayidx.i.i5, align 1
  %10 = and i8 %9, 1
  %11 = icmp ne i8 %10, 0
  %not.tobool7.not.i = xor i1 %tobool.i.i, %11
  %inc.i = zext i1 %not.tobool7.not.i to i32
  %spec.select.i = add i32 %r.09.i, %inc.i
  %incdec.ptr.i = getelementptr inbounds i8, ptr %__begin1.08.i, i64 4
  %cmp.not.i = icmp eq ptr %incdec.ptr.i, %add.ptr.i.ptr.i
  br i1 %cmp.not.i, label %_ZNK3sat6solver3psmERKNS_6clauseE.exit, label %for.body.i

_ZNK3sat6solver3psmERKNS_6clauseE.exit:           ; preds = %for.body.i, %for.body
  %r.0.lcssa.i = phi i32 [ 0, %for.body ], [ %spec.select.i, %for.body.i ]
  %cond.i = tail call i32 @llvm.umin.i32(i32 %r.0.lcssa.i, i32 255)
  %m_psm.i = getelementptr inbounds i8, ptr %3, i64 16
  %bf.load.i = load i32, ptr %m_psm.i, align 4
  %bf.shl.i = shl nuw nsw i32 %cond.i, 22
  %bf.clear.i = and i32 %bf.load.i, -1069547521
  %bf.set.i = or disjoint i32 %bf.clear.i, %bf.shl.i
  store i32 %bf.set.i, ptr %m_psm.i, align 4
  %incdec.ptr = getelementptr inbounds i8, ptr %__begin1.07, i64 8
  %cmp.not = icmp eq ptr %incdec.ptr, %add.ptr.i
  br i1 %cmp.not, label %for.end, label %for.body

for.end:                                          ; preds = %_ZNK3sat6solver3psmERKNS_6clauseE.exit, %entry, %_ZN6vectorIPN3sat6clauseELb0EjE3endEv.exit
  ret void
}